; Function Attrs: nounwind uwtable
define internal void @ctxErrorMsg(ptr noundef %0, ptr noundef %1, ...) unnamed_addr #2 {
  %3 = alloca [1 x %struct.__va_list_tag], align 16
  call void @llvm.lifetime.start.p0(i64 24, ptr nonnull %3) #43
  call void @llvm.va_start.p0(ptr nonnull %3)
  %4 = call ptr @sqlite3_vmprintf(ptr noundef %1, ptr noundef nonnull %3) #43
  call void @sqlite3_result_error(ptr noundef %0, ptr noundef %4, i32 noundef -1) #43
  call void @sqlite3_free(ptr noundef %4) #43
  call void @llvm.va_end.p0(ptr nonnull %3)
  call void @llvm.lifetime.end.p0(i64 24, ptr nonnull %3) #43
  ret void
}